Certificate:
    Data:
        Version: 3 (0x2)
        Serial Number:
            a0:b3:18:8b:5f:79:bb:99
    Signature Algorithm: sha256WithRSAEncryption
        Issuer: C=US, ST=North Carolina, L=Raleigh, O=Katello, OU=SomeOrgUnit, CN=satellite-dle.ole.redhat.com
        Validity
            Not Before: May  7 05:23:25 2020 GMT
            Not After : Jan 18 05:23:25 2038 GMT
        Subject: C=US, ST=North Carolina, L=Raleigh, O=Katello, OU=SomeOrgUnit, CN=satellite-dle.ole.redhat.com
        Subject Public Key Info:
            Public Key Algorithm: rsaEncryption
                Public-Key: (2048 bit)
                Modulus:
                    00:d2:31:3a:6c:0b:d1:93:16:c4:cc:66:2c:95:7f:
                    ad:f9:b6:b2:23:f9:67:b8:77:e2:ca:fd:1b:e8:df:
                    f8:9e:33:6c:3d:d6:5e:e8:7a:46:db:c1:3e:f1:2f:
                    85:24:4b:16:f9:08:b8:cb:19:ca:9e:47:8d:7d:44:
                    a6:04:c2:05:7c:34:ad:92:2a:d4:e8:a6:66:f3:36:
                    d1:35:8f:71:f7:09:50:44:61:95:31:d4:60:ca:66:
                    42:62:52:f4:a0:30:f5:c3:0b:e2:62:10:f2:14:3d:
                    c0:c0:35:2d:9a:3b:9a:5d:49:05:0f:41:07:ca:0c:
                    7b:e2:ad:d4:62:60:2a:73:3b:9a:a5:52:3a:29:f2:
                    d0:04:f9:f7:13:f7:85:38:44:e6:02:b2:09:eb:08:
                    ab:dc:3f:71:73:6f:8c:5c:6d:0b:97:a7:c9:5c:1b:
                    43:fc:40:bc:96:10:09:17:16:b8:b9:a8:56:c2:5b:
                    5f:8d:e7:bb:15:91:d9:3e:bd:c0:a4:52:a0:c9:bc:
                    c9:44:f6:69:a9:78:8d:50:02:60:43:1e:fc:d4:d5:
                    d5:ff:d0:a6:3d:7d:26:04:3d:9e:69:c4:4f:0b:35:
                    5f:7f:98:d4:51:82:5d:b1:ad:bc:52:ab:e4:f5:73:
                    f6:d0:2c:06:14:1b:f2:a9:cd:e1:d8:c5:8a:0d:eb:
                    f9:d7
                Exponent: 65537 (0x10001)
        X509v3 extensions:
            X509v3 Basic Constraints: 
                CA:TRUE
            X509v3 Key Usage: 
                Digital Signature, Key Encipherment, Certificate Sign, CRL Sign
            X509v3 Extended Key Usage: 
                TLS Web Server Authentication, TLS Web Client Authentication
            Netscape Cert Type: 
                SSL Server, SSL CA
            Netscape Comment: 
                Katello SSL Tool Generated Certificate
            X509v3 Subject Key Identifier: 
                A8:9F:27:BC:E1:74:33:34:11:E0:7A:09:5E:3A:75:8D:AC:98:12:7F
            X509v3 Authority Key Identifier: 
                keyid:A8:9F:27:BC:E1:74:33:34:11:E0:7A:09:5E:3A:75:8D:AC:98:12:7F
                DirName:/C=US/ST=North Carolina/L=Raleigh/O=Katello/OU=SomeOrgUnit/CN=satellite-dle.ole.redhat.com
                serial:A0:B3:18:8B:5F:79:BB:99

    Signature Algorithm: sha256WithRSAEncryption
         47:c8:2f:d5:3c:01:36:29:47:4a:08:c6:cc:98:6b:1f:ca:d1:
         13:9b:5b:b8:d6:79:b9:dc:0d:df:72:af:d9:f6:db:43:6b:50:
         57:cb:c5:61:1b:66:53:4c:e9:e7:9f:c8:b1:87:5d:74:35:8d:
         20:8e:9a:18:b5:74:9f:7b:43:23:97:26:ce:c7:68:32:a6:96:
         a6:a3:f3:95:7b:6a:a8:68:47:30:94:15:aa:48:0c:db:f7:5f:
         b1:72:5b:97:7b:16:fc:8e:ec:24:c1:5c:69:fa:2d:4c:e2:b4:
         91:65:04:12:3b:42:a6:14:1f:86:a0:6d:3f:af:bf:41:39:0d:
         9a:6c:b8:c0:dd:e7:f7:1c:bf:16:83:e5:5d:c3:52:6a:ed:b3:
         83:67:aa:45:ce:6f:4d:b7:65:da:98:2d:7e:b1:9a:d3:35:06:
         8e:66:bc:4f:09:b0:97:8b:af:79:08:ea:c6:b9:6f:da:ee:79:
         9a:89:4a:43:d3:4c:95:c7:b6:99:7e:f4:46:45:5e:cd:1c:1b:
         3f:b1:89:93:23:88:63:13:e5:be:63:57:bc:8e:33:19:de:ed:
         1e:86:8b:2e:71:3f:8d:34:32:94:3a:c0:6d:8a:c2:54:99:10:
         32:01:19:b5:a3:1c:f6:fb:ce:47:04:d7:c3:09:da:72:04:87:
         36:b1:35:59
-----BEGIN CERTIFICATE-----
MIIE+zCCA+OgAwIBAgIJAKCzGItfebuZMA0GCSqGSIb3DQEBCwUAMIGHMQswCQYD
VQQGEwJVUzEXMBUGA1UECAwOTm9ydGggQ2Fyb2xpbmExEDAOBgNVBAcMB1JhbGVp
Z2gxEDAOBgNVBAoMB0thdGVsbG8xFDASBgNVBAsMC1NvbWVPcmdVbml0MSUwIwYD
VQQDDBxzYXRlbGxpdGUtZGxlLm9sZS5yZWRoYXQuY29tMB4XDTIwMDUwNzA1MjMy
NVoXDTM4MDExODA1MjMyNVowgYcxCzAJBgNVBAYTAlVTMRcwFQYDVQQIDA5Ob3J0
aCBDYXJvbGluYTEQMA4GA1UEBwwHUmFsZWlnaDEQMA4GA1UECgwHS2F0ZWxsbzEU
MBIGA1UECwwLU29tZU9yZ1VuaXQxJTAjBgNVBAMMHHNhdGVsbGl0ZS1kbGUub2xl
LnJlZGhhdC5jb20wggEiMA0GCSqGSIb3DQEBAQUAA4IBDwAwggEKAoIBAQDSMTps
C9GTFsTMZiyVf635trIj+We4d+LK/Rvo3/ieM2w91l7oekbbwT7xL4UkSxb5CLjL
GcqeR419RKYEwgV8NK2SKtTopmbzNtE1j3H3CVBEYZUx1GDKZkJiUvSgMPXDC+Ji
EPIUPcDANS2aO5pdSQUPQQfKDHvirdRiYCpzO5qlUjop8tAE+fcT94U4ROYCsgnr
CKvcP3Fzb4xcbQuXp8lcG0P8QLyWEAkXFri5qFbCW1+N57sVkdk+vcCkUqDJvMlE
9mmpeI1QAmBDHvzU1dX/0KY9fSYEPZ5pxE8LNV9/mNRRgl2xrbxSq+T1c/bQLAYU
G/KpzeHYxYoN6/nXAgMBAAGjggFmMIIBYjAMBgNVHRMEBTADAQH/MAsGA1UdDwQE
AwIBpjAdBgNVHSUEFjAUBggrBgEFBQcDAQYIKwYBBQUHAwIwEQYJYIZIAYb4QgEB
BAQDAgJEMDUGCWCGSAGG+EIBDQQoFiZLYXRlbGxvIFNTTCBUb29sIEdlbmVyYXRl
ZCBDZXJ0aWZpY2F0ZTAdBgNVHQ4EFgQUqJ8nvOF0MzQR4HoJXjp1jayYEn8wgbwG
A1UdIwSBtDCBsYAUqJ8nvOF0MzQR4HoJXjp1jayYEn+hgY2kgYowgYcxCzAJBgNV
BAYTAlVTMRcwFQYDVQQIDA5Ob3J0aCBDYXJvbGluYTEQMA4GA1UEBwwHUmFsZWln
aDEQMA4GA1UECgwHS2F0ZWxsbzEUMBIGA1UECwwLU29tZU9yZ1VuaXQxJTAjBgNV
BAMMHHNhdGVsbGl0ZS1kbGUub2xlLnJlZGhhdC5jb22CCQCgsxiLX3m7mTANBgkq
hkiG9w0BAQsFAAOCAQEAR8gv1TwBNilHSgjGzJhrH8rRE5tbuNZ5udwN33Kv2fbb
Q2tQV8vFYRtmU0zp55/IsYdddDWNII6aGLV0n3tDI5cmzsdoMqaWpqPzlXtqqGhH
MJQVqkgM2/dfsXJbl3sW/I7sJMFcafotTOK0kWUEEjtCphQfhqBtP6+/QTkNmmy4
wN3n9xy/FoPlXcNSau2zg2eqRc5vTbdl2pgtfrGa0zUGjma8Twmwl4uveQjqxrlv
2u55molKQ9NMlce2mX70RkVezRwbP7GJkyOIYxPlvmNXvI4zGd7tHoaLLnE/jTQy
lDrAbYrCVJkQMgEZtaMc9vvORwTXwwnacgSHNrE1WQ==
-----END CERTIFICATE-----
